target datalayout = "e-m:e-p270:32:32-p271:32:32-p272:64:64-i64:64-i128:128-f80:128-n8:16:32:64-S128"
target triple = "x86_64-pc-linux-gnu"

; Function Attrs: nounwind uwtable
define i32 @stbiw__crc32(ptr noundef %0, i32 noundef %1) #0 {
  %3 = alloca ptr, align 8
  %4 = alloca i32, align 4
  %5 = alloca [256 x i32], align 16
  %6 = alloca i32, align 4
  %7 = alloca i32, align 4
  store ptr %0, ptr %3, align 8, !tbaa !12
  store i32 %1, ptr %4, align 4, !tbaa !3
  call void @llvm.lifetime.start.p0(i64 1024, ptr %5) #11
  call void @llvm.memcpy.p0.p0.i64(ptr align 16 %5, ptr align 16 @__const.stbiw__crc32.crc_table, i64 1024, i1 false)
  call void @llvm.lifetime.start.p0(i64 4, ptr %6) #11
  store i32 -1, ptr %6, align 4, !tbaa !3
  call void @llvm.lifetime.start.p0(i64 4, ptr %7) #11
  store i32 0, ptr %7, align 4, !tbaa !3
  br label %8

8:                                                ; preds = %28, %2
  %9 = load i32, ptr %7, align 4, !tbaa !3
  %10 = load i32, ptr %4, align 4, !tbaa !3
  %11 = icmp slt i32 %9, %10
  br i1 %11, label %12, label %31

12:                                               ; preds = %8
  %13 = load i32, ptr %6, align 4, !tbaa !3
  %14 = lshr i32 %13, 8
  %15 = load ptr, ptr %3, align 8, !tbaa !12
  %16 = load i32, ptr %7, align 4, !tbaa !3
  %17 = sext i32 %16 to i64
  %18 = getelementptr inbounds i8, ptr %15, i64 %17
  %19 = load i8, ptr %18, align 1, !tbaa !18
  %20 = zext i8 %19 to i32
  %21 = load i32, ptr %6, align 4, !tbaa !3
  %22 = and i32 %21, 255
  %23 = xor i32 %20, %22
  %24 = zext i32 %23 to i64
  %25 = getelementptr inbounds nuw [256 x i32], ptr %5, i64 0, i64 %24
  %26 = load i32, ptr %25, align 4, !tbaa !3
  %27 = xor i32 %14, %26
  store i32 %27, ptr %6, align 4, !tbaa !3
  br label %28

28:                                               ; preds = %12
  %29 = load i32, ptr %7, align 4, !tbaa !3
  %30 = add nsw i32 %29, 1
  store i32 %30, ptr %7, align 4, !tbaa !3
  br label %8, !llvm.loop !66

31:                                               ; preds = %8
  %32 = load i32, ptr %6, align 4, !tbaa !3
  %33 = xor i32 %32, -1
  call void @llvm.lifetime.end.p0(i64 4, ptr %7) #11
  call void @llvm.lifetime.end.p0(i64 4, ptr %6) #11
  call void @llvm.lifetime.end.p0(i64 1024, ptr %5) #11
  ret i32 %33
}

; Function Attrs: nounwind uwtable
define void @stbiw__wpcrc(ptr noundef %0, i32 noundef %1) #0 {
  %3 = alloca ptr, align 8
  %4 = alloca i32, align 4
  %5 = alloca i32, align 4
  store ptr %0, ptr %3, align 8, !tbaa !50
  store i32 %1, ptr %4, align 4, !tbaa !3
  call void @llvm.lifetime.start.p0(i64 4, ptr %5) #11
  %6 = load ptr, ptr %3, align 8, !tbaa !50
  %7 = load ptr, ptr %6, align 8, !tbaa !12
  %8 = load i32, ptr %4, align 4, !tbaa !3
  %9 = sext i32 %8 to i64
  %10 = sub i64 0, %9
  %11 = getelementptr inbounds i8, ptr %7, i64 %10
  %12 = getelementptr inbounds i8, ptr %11, i64 -4
  %13 = load i32, ptr %4, align 4, !tbaa !3
  %14 = add nsw i32 %13, 4
  %15 = call i32 @stbiw__crc32(ptr noundef %12, i32 noundef %14)
  store i32 %15, ptr %5, align 4, !tbaa !3
  %16 = load i32, ptr %5, align 4, !tbaa !3
  %17 = lshr i32 %16, 24
  %18 = and i32 %17, 255
  %19 = trunc i32 %18 to i8
  %20 = load ptr, ptr %3, align 8, !tbaa !50
  %21 = load ptr, ptr %20, align 8, !tbaa !12
  %22 = getelementptr inbounds i8, ptr %21, i64 0
  store i8 %19, ptr %22, align 1, !tbaa !18
  %23 = load i32, ptr %5, align 4, !tbaa !3
  %24 = lshr i32 %23, 16
  %25 = and i32 %24, 255
  %26 = trunc i32 %25 to i8
  %27 = load ptr, ptr %3, align 8, !tbaa !50
  %28 = load ptr, ptr %27, align 8, !tbaa !12
  %29 = getelementptr inbounds i8, ptr %28, i64 1
  store i8 %26, ptr %29, align 1, !tbaa !18
  %30 = load i32, ptr %5, align 4, !tbaa !3
  %31 = lshr i32 %30, 8
  %32 = and i32 %31, 255
  %33 = trunc i32 %32 to i8
  %34 = load ptr, ptr %3, align 8, !tbaa !50
  %35 = load ptr, ptr %34, align 8, !tbaa !12
  %36 = getelementptr inbounds i8, ptr %35, i64 2
  store i8 %33, ptr %36, align 1, !tbaa !18
  %37 = load i32, ptr %5, align 4, !tbaa !3
  %38 = and i32 %37, 255
  %39 = trunc i32 %38 to i8
  %40 = load ptr, ptr %3, align 8, !tbaa !50
  %41 = load ptr, ptr %40, align 8, !tbaa !12
  %42 = getelementptr inbounds i8, ptr %41, i64 3
  store i8 %39, ptr %42, align 1, !tbaa !18
  %43 = load ptr, ptr %3, align 8, !tbaa !50
  %44 = load ptr, ptr %43, align 8, !tbaa !12
  %45 = getelementptr inbounds i8, ptr %44, i64 4
  store ptr %45, ptr %43, align 8, !tbaa !12
  call void @llvm.lifetime.end.p0(i64 4, ptr %5) #11
  ret void
}