; Function Attrs: nofree norecurse nosync nounwind memory(readwrite, inaccessiblemem: none) uwtable
define void @stbiw__wpcrc(ptr noundef captures(none) %0, i32 noundef %1) local_unnamed_addr #18 {
  %3 = load ptr, ptr %0, align 8, !tbaa !40
  %4 = sext i32 %1 to i64
  %5 = sub nsw i64 0, %4
  %6 = getelementptr inbounds i8, ptr %3, i64 %5
  %7 = getelementptr inbounds i8, ptr %6, i64 -4
  %8 = icmp sgt i32 %1, -4
  br i1 %8, label %.lr.ph.preheader.i, label %stbiw__crc32.exit

.lr.ph.preheader.i:                               ; preds = %2
  %9 = add nsw i32 %1, 4
  %wide.trip.count.i = zext nneg i32 %9 to i64
  br label %.lr.ph.i

.lr.ph.i:                                         ; preds = %.lr.ph.i, %.lr.ph.preheader.i
  %indvars.iv.i = phi i64 [ 0, %.lr.ph.preheader.i ], [ %indvars.iv.next.i, %.lr.ph.i ]
  %.078.i = phi i32 [ -1, %.lr.ph.preheader.i ], [ %19, %.lr.ph.i ]
  %10 = lshr i32 %.078.i, 8
  %11 = getelementptr inbounds nuw i8, ptr %7, i64 %indvars.iv.i
  %12 = load i8, ptr %11, align 1, !tbaa !11
  %13 = zext i8 %12 to i32
  %14 = and i32 %.078.i, 255
  %15 = xor i32 %14, %13
  %16 = zext nneg i32 %15 to i64
  %17 = getelementptr inbounds nuw [256 x i32], ptr @__const.stbiw__crc32.crc_table, i64 0, i64 %16
  %18 = load i32, ptr %17, align 4, !tbaa !3
  %19 = xor i32 %18, %10
  %indvars.iv.next.i = add nuw nsw i64 %indvars.iv.i, 1
  %exitcond.not.i = icmp eq i64 %indvars.iv.next.i, %wide.trip.count.i
  br i1 %exitcond.not.i, label %._crit_edge.loopexit.i, label %.lr.ph.i, !llvm.loop !55

._crit_edge.loopexit.i:                           ; preds = %.lr.ph.i
  %20 = xor i32 %19, -1
  br label %stbiw__crc32.exit

stbiw__crc32.exit:                                ; preds = %2, %._crit_edge.loopexit.i
  %.07.lcssa.i = phi i32 [ 0, %2 ], [ %20, %._crit_edge.loopexit.i ]
  %21 = lshr i32 %.07.lcssa.i, 24
  %22 = trunc nuw i32 %21 to i8
  store i8 %22, ptr %3, align 1, !tbaa !11
  %23 = lshr i32 %.07.lcssa.i, 16
  %24 = trunc i32 %23 to i8
  %25 = load ptr, ptr %0, align 8, !tbaa !40
  %26 = getelementptr inbounds nuw i8, ptr %25, i64 1
  store i8 %24, ptr %26, align 1, !tbaa !11
  %27 = lshr i32 %.07.lcssa.i, 8
  %28 = trunc i32 %27 to i8
  %29 = load ptr, ptr %0, align 8, !tbaa !40
  %30 = getelementptr inbounds nuw i8, ptr %29, i64 2
  store i8 %28, ptr %30, align 1, !tbaa !11
  %31 = trunc i32 %.07.lcssa.i to i8
  %32 = load ptr, ptr %0, align 8, !tbaa !40
  %33 = getelementptr inbounds nuw i8, ptr %32, i64 3
  store i8 %31, ptr %33, align 1, !tbaa !11
  %34 = load ptr, ptr %0, align 8, !tbaa !40
  %35 = getelementptr inbounds nuw i8, ptr %34, i64 4
  store ptr %35, ptr %0, align 8, !tbaa !40
  ret void
}